target datalayout = "e-m:e-p270:32:32-p271:32:32-p272:64:64-i64:64-i128:128-f80:128-n8:16:32:64-S128"
target triple = "x86_64-pc-linux-gnu"

@av1_get_palette_color_index_context.weights = internal constant [3 x i32] [i32 2, i32 1, i32 2], align 4
@av1_get_palette_color_index_context.hash_multipliers = internal constant [3 x i32] [i32 1, i32 2, i32 2], align 4
@palette_color_index_context_lookup = internal constant [9 x i32] [i32 -1, i32 -1, i32 0, i32 -1, i32 -1, i32 4, i32 3, i32 2, i32 1], align 16

; Function Attrs: nounwind uwtable
define hidden i32 @av1_get_palette_color_index_context(ptr noundef %0, i32 noundef %1, i32 noundef %2, i32 noundef %3, i32 noundef %4, ptr noundef %5, ptr noundef %6) #0 {
  %8 = alloca ptr, align 8
  %9 = alloca i32, align 4
  %10 = alloca i32, align 4
  %11 = alloca i32, align 4
  %12 = alloca i32, align 4
  %13 = alloca ptr, align 8
  %14 = alloca ptr, align 8
  %15 = alloca [3 x i32], align 4
  %16 = alloca [18 x i32], align 16
  %17 = alloca i32, align 4
  %18 = alloca [8 x i32], align 16
  %19 = alloca i32, align 4
  %20 = alloca i32, align 4
  %21 = alloca i32, align 4
  %22 = alloca i32, align 4
  %23 = alloca i8, align 1
  %24 = alloca i32, align 4
  %25 = alloca i32, align 4
  %26 = alloca i32, align 4
  store ptr %0, ptr %8, align 8
  store i32 %1, ptr %9, align 4
  store i32 %2, ptr %10, align 4
  store i32 %3, ptr %11, align 4
  store i32 %4, ptr %12, align 4
  store ptr %5, ptr %13, align 8
  store ptr %6, ptr %14, align 8
  %27 = load i32, ptr %11, align 4
  %28 = sub nsw i32 %27, 1
  %29 = icmp sge i32 %28, 0
  br i1 %29, label %30, label %42

30:                                               ; preds = %7
  %31 = load ptr, ptr %8, align 8
  %32 = load i32, ptr %10, align 4
  %33 = load i32, ptr %9, align 4
  %34 = mul nsw i32 %32, %33
  %35 = load i32, ptr %11, align 4
  %36 = add nsw i32 %34, %35
  %37 = sub nsw i32 %36, 1
  %38 = sext i32 %37 to i64
  %39 = getelementptr inbounds i8, ptr %31, i64 %38
  %40 = load i8, ptr %39, align 1
  %41 = zext i8 %40 to i32
  br label %43

42:                                               ; preds = %7
  br label %43

43:                                               ; preds = %42, %30
  %44 = phi i32 [ %41, %30 ], [ -1, %42 ]
  %45 = getelementptr inbounds [3 x i32], ptr %15, i64 0, i64 0
  store i32 %44, ptr %45, align 4
  %46 = load i32, ptr %11, align 4
  %47 = sub nsw i32 %46, 1
  %48 = icmp sge i32 %47, 0
  br i1 %48, label %49, label %66

49:                                               ; preds = %43
  %50 = load i32, ptr %10, align 4
  %51 = sub nsw i32 %50, 1
  %52 = icmp sge i32 %51, 0
  br i1 %52, label %53, label %66

53:                                               ; preds = %49
  %54 = load ptr, ptr %8, align 8
  %55 = load i32, ptr %10, align 4
  %56 = sub nsw i32 %55, 1
  %57 = load i32, ptr %9, align 4
  %58 = mul nsw i32 %56, %57
  %59 = load i32, ptr %11, align 4
  %60 = add nsw i32 %58, %59
  %61 = sub nsw i32 %60, 1
  %62 = sext i32 %61 to i64
  %63 = getelementptr inbounds i8, ptr %54, i64 %62
  %64 = load i8, ptr %63, align 1
  %65 = zext i8 %64 to i32
  br label %67

66:                                               ; preds = %49, %43
  br label %67

67:                                               ; preds = %66, %53
  %68 = phi i32 [ %65, %53 ], [ -1, %66 ]
  %69 = getelementptr inbounds [3 x i32], ptr %15, i64 0, i64 1
  store i32 %68, ptr %69, align 4
  %70 = load i32, ptr %10, align 4
  %71 = sub nsw i32 %70, 1
  %72 = icmp sge i32 %71, 0
  br i1 %72, label %73, label %85

73:                                               ; preds = %67
  %74 = load ptr, ptr %8, align 8
  %75 = load i32, ptr %10, align 4
  %76 = sub nsw i32 %75, 1
  %77 = load i32, ptr %9, align 4
  %78 = mul nsw i32 %76, %77
  %79 = load i32, ptr %11, align 4
  %80 = add nsw i32 %78, %79
  %81 = sext i32 %80 to i64
  %82 = getelementptr inbounds i8, ptr %74, i64 %81
  %83 = load i8, ptr %82, align 1
  %84 = zext i8 %83 to i32
  br label %86

85:                                               ; preds = %67
  br label %86

86:                                               ; preds = %85, %73
  %87 = phi i32 [ %84, %73 ], [ -1, %85 ]
  %88 = getelementptr inbounds [3 x i32], ptr %15, i64 0, i64 2
  store i32 %87, ptr %88, align 4
  call void @llvm.memset.p0.i64(ptr align 16 %16, i8 0, i64 72, i1 false)
  store i32 0, ptr %17, align 4
  br label %89

89:                                               ; preds = %112, %86
  %90 = load i32, ptr %17, align 4
  %91 = icmp slt i32 %90, 3
  br i1 %91, label %92, label %115

92:                                               ; preds = %89
  %93 = load i32, ptr %17, align 4
  %94 = sext i32 %93 to i64
  %95 = getelementptr inbounds [3 x i32], ptr %15, i64 0, i64 %94
  %96 = load i32, ptr %95, align 4
  %97 = icmp sge i32 %96, 0
  br i1 %97, label %98, label %111

98:                                               ; preds = %92
  %99 = load i32, ptr %17, align 4
  %100 = sext i32 %99 to i64
  %101 = getelementptr inbounds [3 x i32], ptr @av1_get_palette_color_index_context.weights, i64 0, i64 %100
  %102 = load i32, ptr %101, align 4
  %103 = load i32, ptr %17, align 4
  %104 = sext i32 %103 to i64
  %105 = getelementptr inbounds [3 x i32], ptr %15, i64 0, i64 %104
  %106 = load i32, ptr %105, align 4
  %107 = sext i32 %106 to i64
  %108 = getelementptr inbounds [18 x i32], ptr %16, i64 0, i64 %107
  %109 = load i32, ptr %108, align 4
  %110 = add nsw i32 %109, %102
  store i32 %110, ptr %108, align 4
  br label %111

111:                                              ; preds = %98, %92
  br label %112

112:                                              ; preds = %111
  %113 = load i32, ptr %17, align 4
  %114 = add nsw i32 %113, 1
  store i32 %114, ptr %17, align 4
  br label %89, !llvm.loop !4

115:                                              ; preds = %89
  store i32 0, ptr %17, align 4
  br label %116

116:                                              ; preds = %130, %115
  %117 = load i32, ptr %17, align 4
  %118 = icmp slt i32 %117, 8
  br i1 %118, label %119, label %133

119:                                              ; preds = %116
  %120 = load i32, ptr %17, align 4
  %121 = trunc i32 %120 to i8
  %122 = load ptr, ptr %13, align 8
  %123 = load i32, ptr %17, align 4
  %124 = sext i32 %123 to i64
  %125 = getelementptr inbounds i8, ptr %122, i64 %124
  store i8 %121, ptr %125, align 1
  %126 = load i32, ptr %17, align 4
  %127 = load i32, ptr %17, align 4
  %128 = sext i32 %127 to i64
  %129 = getelementptr inbounds [8 x i32], ptr %18, i64 0, i64 %128
  store i32 %126, ptr %129, align 4
  br label %130

130:                                              ; preds = %119
  %131 = load i32, ptr %17, align 4
  %132 = add nsw i32 %131, 1
  store i32 %132, ptr %17, align 4
  br label %116, !llvm.loop !6

133:                                              ; preds = %116
  store i32 0, ptr %17, align 4
  br label %134

134:                                              ; preds = %234, %133
  %135 = load i32, ptr %17, align 4
  %136 = icmp slt i32 %135, 3
  br i1 %136, label %137, label %237

137:                                              ; preds = %134
  %138 = load i32, ptr %17, align 4
  %139 = sext i32 %138 to i64
  %140 = getelementptr inbounds [18 x i32], ptr %16, i64 0, i64 %139
  %141 = load i32, ptr %140, align 4
  store i32 %141, ptr %19, align 4
  %142 = load i32, ptr %17, align 4
  store i32 %142, ptr %20, align 4
  %143 = load i32, ptr %17, align 4
  %144 = add nsw i32 %143, 1
  store i32 %144, ptr %21, align 4
  br label %145

145:                                              ; preds = %163, %137
  %146 = load i32, ptr %21, align 4
  %147 = load i32, ptr %12, align 4
  %148 = icmp slt i32 %146, %147
  br i1 %148, label %149, label %166

149:                                              ; preds = %145
  %150 = load i32, ptr %21, align 4
  %151 = sext i32 %150 to i64
  %152 = getelementptr inbounds [18 x i32], ptr %16, i64 0, i64 %151
  %153 = load i32, ptr %152, align 4
  %154 = load i32, ptr %19, align 4
  %155 = icmp sgt i32 %153, %154
  br i1 %155, label %156, label %162

156:                                              ; preds = %149
  %157 = load i32, ptr %21, align 4
  %158 = sext i32 %157 to i64
  %159 = getelementptr inbounds [18 x i32], ptr %16, i64 0, i64 %158
  %160 = load i32, ptr %159, align 4
  store i32 %160, ptr %19, align 4
  %161 = load i32, ptr %21, align 4
  store i32 %161, ptr %20, align 4
  br label %162

162:                                              ; preds = %156, %149
  br label %163

163:                                              ; preds = %162
  %164 = load i32, ptr %21, align 4
  %165 = add nsw i32 %164, 1
  store i32 %165, ptr %21, align 4
  br label %145, !llvm.loop !7

166:                                              ; preds = %145
  %167 = load i32, ptr %20, align 4
  %168 = load i32, ptr %17, align 4
  %169 = icmp ne i32 %167, %168
  br i1 %169, label %170, label %233

170:                                              ; preds = %166
  %171 = load i32, ptr %20, align 4
  %172 = sext i32 %171 to i64
  %173 = getelementptr inbounds [18 x i32], ptr %16, i64 0, i64 %172
  %174 = load i32, ptr %173, align 4
  store i32 %174, ptr %22, align 4
  %175 = load ptr, ptr %13, align 8
  %176 = load i32, ptr %20, align 4
  %177 = sext i32 %176 to i64
  %178 = getelementptr inbounds i8, ptr %175, i64 %177
  %179 = load i8, ptr %178, align 1
  store i8 %179, ptr %23, align 1
  %180 = load i32, ptr %20, align 4
  store i32 %180, ptr %24, align 4
  br label %181

181:                                              ; preds = %212, %170
  %182 = load i32, ptr %24, align 4
  %183 = load i32, ptr %17, align 4
  %184 = icmp sgt i32 %182, %183
  br i1 %184, label %185, label %215

185:                                              ; preds = %181
  %186 = load i32, ptr %24, align 4
  %187 = sub nsw i32 %186, 1
  %188 = sext i32 %187 to i64
  %189 = getelementptr inbounds [18 x i32], ptr %16, i64 0, i64 %188
  %190 = load i32, ptr %189, align 4
  %191 = load i32, ptr %24, align 4
  %192 = sext i32 %191 to i64
  %193 = getelementptr inbounds [18 x i32], ptr %16, i64 0, i64 %192
  store i32 %190, ptr %193, align 4
  %194 = load ptr, ptr %13, align 8
  %195 = load i32, ptr %24, align 4
  %196 = sub nsw i32 %195, 1
  %197 = sext i32 %196 to i64
  %198 = getelementptr inbounds i8, ptr %194, i64 %197
  %199 = load i8, ptr %198, align 1
  %200 = load ptr, ptr %13, align 8
  %201 = load i32, ptr %24, align 4
  %202 = sext i32 %201 to i64
  %203 = getelementptr inbounds i8, ptr %200, i64 %202
  store i8 %199, ptr %203, align 1
  %204 = load i32, ptr %24, align 4
  %205 = load ptr, ptr %13, align 8
  %206 = load i32, ptr %24, align 4
  %207 = sext i32 %206 to i64
  %208 = getelementptr inbounds i8, ptr %205, i64 %207
  %209 = load i8, ptr %208, align 1
  %210 = zext i8 %209 to i64
  %211 = getelementptr inbounds [8 x i32], ptr %18, i64 0, i64 %210
  store i32 %204, ptr %211, align 4
  br label %212

212:                                              ; preds = %185
  %213 = load i32, ptr %24, align 4
  %214 = add nsw i32 %213, -1
  store i32 %214, ptr %24, align 4
  br label %181, !llvm.loop !8

215:                                              ; preds = %181
  %216 = load i32, ptr %22, align 4
  %217 = load i32, ptr %17, align 4
  %218 = sext i32 %217 to i64
  %219 = getelementptr inbounds [18 x i32], ptr %16, i64 0, i64 %218
  store i32 %216, ptr %219, align 4
  %220 = load i8, ptr %23, align 1
  %221 = load ptr, ptr %13, align 8
  %222 = load i32, ptr %17, align 4
  %223 = sext i32 %222 to i64
  %224 = getelementptr inbounds i8, ptr %221, i64 %223
  store i8 %220, ptr %224, align 1
  %225 = load i32, ptr %17, align 4
  %226 = load ptr, ptr %13, align 8
  %227 = load i32, ptr %17, align 4
  %228 = sext i32 %227 to i64
  %229 = getelementptr inbounds i8, ptr %226, i64 %228
  %230 = load i8, ptr %229, align 1
  %231 = zext i8 %230 to i64
  %232 = getelementptr inbounds [8 x i32], ptr %18, i64 0, i64 %231
  store i32 %225, ptr %232, align 4
  br label %233

233:                                              ; preds = %215, %166
  br label %234

234:                                              ; preds = %233
  %235 = load i32, ptr %17, align 4
  %236 = add nsw i32 %235, 1
  store i32 %236, ptr %17, align 4
  br label %134, !llvm.loop !9

237:                                              ; preds = %134
  %238 = load ptr, ptr %14, align 8
  %239 = icmp ne ptr %238, null
  br i1 %239, label %240, label %254

240:                                              ; preds = %237
  %241 = load ptr, ptr %8, align 8
  %242 = load i32, ptr %10, align 4
  %243 = load i32, ptr %9, align 4
  %244 = mul nsw i32 %242, %243
  %245 = load i32, ptr %11, align 4
  %246 = add nsw i32 %244, %245
  %247 = sext i32 %246 to i64
  %248 = getelementptr inbounds i8, ptr %241, i64 %247
  %249 = load i8, ptr %248, align 1
  %250 = zext i8 %249 to i64
  %251 = getelementptr inbounds [8 x i32], ptr %18, i64 0, i64 %250
  %252 = load i32, ptr %251, align 4
  %253 = load ptr, ptr %14, align 8
  store i32 %252, ptr %253, align 4
  br label %254

254:                                              ; preds = %240, %237
  store i32 0, ptr %25, align 4
  store i32 0, ptr %17, align 4
  br label %255

255:                                              ; preds = %270, %254
  %256 = load i32, ptr %17, align 4
  %257 = icmp slt i32 %256, 3
  br i1 %257, label %258, label %273

258:                                              ; preds = %255
  %259 = load i32, ptr %17, align 4
  %260 = sext i32 %259 to i64
  %261 = getelementptr inbounds [18 x i32], ptr %16, i64 0, i64 %260
  %262 = load i32, ptr %261, align 4
  %263 = load i32, ptr %17, align 4
  %264 = sext i32 %263 to i64
  %265 = getelementptr inbounds [3 x i32], ptr @av1_get_palette_color_index_context.hash_multipliers, i64 0, i64 %264
  %266 = load i32, ptr %265, align 4
  %267 = mul nsw i32 %262, %266
  %268 = load i32, ptr %25, align 4
  %269 = add nsw i32 %268, %267
  store i32 %269, ptr %25, align 4
  br label %270

270:                                              ; preds = %258
  %271 = load i32, ptr %17, align 4
  %272 = add nsw i32 %271, 1
  store i32 %272, ptr %17, align 4
  br label %255, !llvm.loop !10

273:                                              ; preds = %255
  %274 = load i32, ptr %25, align 4
  %275 = sext i32 %274 to i64
  %276 = getelementptr inbounds [9 x i32], ptr @palette_color_index_context_lookup, i64 0, i64 %275
  %277 = load i32, ptr %276, align 4
  store i32 %277, ptr %26, align 4
  %278 = load i32, ptr %26, align 4
  ret i32 %278
}