; Function Attrs: nofree norecurse nosync nounwind memory(argmem: readwrite) uwtable
define hidden i32 @av1_get_palette_color_index_context(ptr nocapture noundef readonly %0, i32 noundef %1, i32 noundef %2, i32 noundef %3, i32 noundef %4, ptr nocapture noundef %5, ptr noundef writeonly %6) local_unnamed_addr #0 {
  %8 = alloca [3 x i32], align 4
  %9 = alloca [18 x i32], align 16
  %10 = alloca [8 x i32], align 16
  %11 = icmp sgt i32 %3, 0
  br i1 %11, label %12, label %31

12:                                               ; preds = %7
  %13 = mul nsw i32 %2, %1
  %14 = add nsw i32 %13, %3
  %15 = sext i32 %14 to i64
  %16 = getelementptr i8, ptr %0, i64 %15
  %17 = getelementptr i8, ptr %16, i64 -1
  %18 = load i8, ptr %17, align 1
  %19 = zext i8 %18 to i32
  store i32 %19, ptr %8, align 4
  %20 = icmp sgt i32 %2, 0
  br i1 %20, label %.thread, label %.thread92

.thread92:                                        ; preds = %12
  %21 = getelementptr inbounds i8, ptr %8, i64 4
  store i32 -1, ptr %21, align 4
  br label %38

.thread:                                          ; preds = %12
  %22 = add nsw i32 %2, -1
  %23 = mul nsw i32 %22, %1
  %24 = add nsw i32 %23, %3
  %25 = sext i32 %24 to i64
  %26 = getelementptr i8, ptr %0, i64 %25
  %27 = getelementptr i8, ptr %26, i64 -1
  %28 = load i8, ptr %27, align 1
  %29 = zext i8 %28 to i32
  %30 = getelementptr inbounds i8, ptr %8, i64 4
  store i32 %29, ptr %30, align 4
  br label %34

31:                                               ; preds = %7
  store i32 -1, ptr %8, align 4
  %32 = getelementptr inbounds i8, ptr %8, i64 4
  store i32 -1, ptr %32, align 4
  %33 = icmp sgt i32 %2, 0
  br i1 %33, label %._crit_edge130, label %38

._crit_edge130:                                   ; preds = %31
  %.pre = add nsw i32 %2, -1
  %.pre131 = mul nsw i32 %.pre, %1
  %.pre133 = add nsw i32 %.pre131, %3
  %.pre135 = sext i32 %.pre133 to i64
  br label %34

34:                                               ; preds = %._crit_edge130, %.thread
  %.pre-phi136 = phi i64 [ %.pre135, %._crit_edge130 ], [ %25, %.thread ]
  %35 = getelementptr inbounds i8, ptr %0, i64 %.pre-phi136
  %36 = load i8, ptr %35, align 1
  %37 = zext i8 %36 to i32
  br label %38

38:                                               ; preds = %.thread92, %31, %34
  %39 = phi i32 [ %37, %34 ], [ -1, %31 ], [ -1, %.thread92 ]
  %40 = getelementptr inbounds i8, ptr %8, i64 8
  store i32 %39, ptr %40, align 4
  call void @llvm.memset.p0.i64(ptr noundef nonnull align 16 dereferenceable(72) %9, i8 0, i64 72, i1 false)
  br label %41

41:                                               ; preds = %38, %52
  %indvars.iv = phi i64 [ 0, %38 ], [ %indvars.iv.next, %52 ]
  %42 = getelementptr inbounds [3 x i32], ptr %8, i64 0, i64 %indvars.iv
  %43 = load i32, ptr %42, align 4
  %44 = icmp sgt i32 %43, -1
  br i1 %44, label %45, label %52

45:                                               ; preds = %41
  %46 = getelementptr inbounds [3 x i32], ptr @av1_get_palette_color_index_context.weights, i64 0, i64 %indvars.iv
  %47 = load i32, ptr %46, align 4
  %48 = zext nneg i32 %43 to i64
  %49 = getelementptr inbounds [18 x i32], ptr %9, i64 0, i64 %48
  %50 = load i32, ptr %49, align 4
  %51 = add nsw i32 %50, %47
  store i32 %51, ptr %49, align 4
  br label %52

52:                                               ; preds = %41, %45
  %indvars.iv.next = add nuw nsw i64 %indvars.iv, 1
  %exitcond.not = icmp eq i64 %indvars.iv.next, 3
  br i1 %exitcond.not, label %.preheader93, label %41, !llvm.loop !4

.preheader93:                                     ; preds = %52, %.preheader93
  %indvars.iv107 = phi i64 [ %indvars.iv.next108, %.preheader93 ], [ 0, %52 ]
  %53 = trunc nuw nsw i64 %indvars.iv107 to i32
  %54 = trunc i64 %indvars.iv107 to i8
  %55 = getelementptr inbounds i8, ptr %5, i64 %indvars.iv107
  store i8 %54, ptr %55, align 1
  %56 = getelementptr inbounds [8 x i32], ptr %10, i64 0, i64 %indvars.iv107
  store i32 %53, ptr %56, align 4
  %indvars.iv.next108 = add nuw nsw i64 %indvars.iv107, 1
  %exitcond110.not = icmp eq i64 %indvars.iv.next108, 8
  br i1 %exitcond110.not, label %.preheader.preheader, label %.preheader93, !llvm.loop !6

.preheader.preheader:                             ; preds = %.preheader93
  %57 = sext i32 %4 to i64
  %wide.trip.count = zext i32 %4 to i64
  br label %.preheader

.preheader:                                       ; preds = %.preheader.preheader, %87
  %indvars.iv122 = phi i64 [ 0, %.preheader.preheader ], [ %indvars.iv.next123, %87 ]
  %indvars.iv111 = phi i64 [ 1, %.preheader.preheader ], [ %indvars.iv.next112, %87 ]
  %58 = getelementptr inbounds [18 x i32], ptr %9, i64 0, i64 %indvars.iv122
  %indvars.iv.next123 = add nuw nsw i64 %indvars.iv122, 1
  %59 = icmp slt i64 %indvars.iv.next123, %57
  %60 = trunc nuw nsw i64 %indvars.iv122 to i32
  br i1 %59, label %.lr.ph.preheader, label %._crit_edge

.lr.ph.preheader:                                 ; preds = %.preheader
  %61 = load i32, ptr %58, align 4
  br label %.lr.ph

.lr.ph:                                           ; preds = %.lr.ph.preheader, %.lr.ph
  %indvars.iv113 = phi i64 [ %indvars.iv111, %.lr.ph.preheader ], [ %indvars.iv.next114, %.lr.ph ]
  %.08098 = phi i32 [ %61, %.lr.ph.preheader ], [ %spec.select91, %.lr.ph ]
  %.08297 = phi i32 [ %60, %.lr.ph.preheader ], [ %spec.select, %.lr.ph ]
  %62 = getelementptr inbounds [18 x i32], ptr %9, i64 0, i64 %indvars.iv113
  %63 = load i32, ptr %62, align 4
  %64 = icmp sgt i32 %63, %.08098
  %65 = trunc nuw nsw i64 %indvars.iv113 to i32
  %spec.select = select i1 %64, i32 %65, i32 %.08297
  %spec.select91 = tail call i32 @llvm.smax.i32(i32 %63, i32 %.08098)
  %indvars.iv.next114 = add nuw nsw i64 %indvars.iv113, 1
  %exitcond116.not = icmp eq i64 %indvars.iv.next114, %wide.trip.count
  br i1 %exitcond116.not, label %._crit_edge, label %.lr.ph, !llvm.loop !7

._crit_edge:                                      ; preds = %.lr.ph, %.preheader
  %.082.lcssa = phi i32 [ %60, %.preheader ], [ %spec.select, %.lr.ph ]
  %66 = zext i32 %.082.lcssa to i64
  %.not90 = icmp eq i64 %indvars.iv122, %66
  br i1 %.not90, label %87, label %67

67:                                               ; preds = %._crit_edge
  %68 = sext i32 %.082.lcssa to i64
  %69 = getelementptr inbounds [18 x i32], ptr %9, i64 0, i64 %68
  %70 = load i32, ptr %69, align 4
  %71 = getelementptr inbounds i8, ptr %5, i64 %68
  %72 = load i8, ptr %71, align 1
  %73 = icmp slt i64 %indvars.iv122, %68
  br i1 %73, label %.lr.ph101, label %._crit_edge102

.lr.ph101:                                        ; preds = %67, %.lr.ph101
  %indvars.iv119 = phi i64 [ %indvars.iv.next120, %.lr.ph101 ], [ %68, %67 ]
  %indvars.iv.next120 = add nsw i64 %indvars.iv119, -1
  %74 = getelementptr inbounds [18 x i32], ptr %9, i64 0, i64 %indvars.iv.next120
  %75 = load i32, ptr %74, align 4
  %76 = getelementptr inbounds [18 x i32], ptr %9, i64 0, i64 %indvars.iv119
  store i32 %75, ptr %76, align 4
  %77 = getelementptr inbounds i8, ptr %5, i64 %indvars.iv.next120
  %78 = load i8, ptr %77, align 1
  %79 = getelementptr inbounds i8, ptr %5, i64 %indvars.iv119
  store i8 %78, ptr %79, align 1
  %80 = zext i8 %78 to i64
  %81 = getelementptr inbounds [8 x i32], ptr %10, i64 0, i64 %80
  %82 = trunc nuw nsw i64 %indvars.iv119 to i32
  store i32 %82, ptr %81, align 4
  %83 = icmp sgt i64 %indvars.iv.next120, %indvars.iv122
  br i1 %83, label %.lr.ph101, label %._crit_edge102, !llvm.loop !8

._crit_edge102:                                   ; preds = %.lr.ph101, %67
  store i32 %70, ptr %58, align 4
  %84 = getelementptr inbounds i8, ptr %5, i64 %indvars.iv122
  store i8 %72, ptr %84, align 1
  %85 = zext i8 %72 to i64
  %86 = getelementptr inbounds [8 x i32], ptr %10, i64 0, i64 %85
  store i32 %60, ptr %86, align 4
  br label %87

87:                                               ; preds = %._crit_edge, %._crit_edge102
  %indvars.iv.next112 = add nuw nsw i64 %indvars.iv111, 1
  %exitcond125.not = icmp eq i64 %indvars.iv.next123, 3
  br i1 %exitcond125.not, label %88, label %.preheader, !llvm.loop !9

88:                                               ; preds = %87
  %.not = icmp eq ptr %6, null
  br i1 %.not, label %.preheader137, label %89

89:                                               ; preds = %88
  %90 = mul nsw i32 %2, %1
  %91 = add nsw i32 %90, %3
  %92 = sext i32 %91 to i64
  %93 = getelementptr inbounds i8, ptr %0, i64 %92
  %94 = load i8, ptr %93, align 1
  %95 = zext i8 %94 to i64
  %96 = getelementptr inbounds [8 x i32], ptr %10, i64 0, i64 %95
  %97 = load i32, ptr %96, align 4
  store i32 %97, ptr %6, align 4
  br label %.preheader137

.preheader137:                                    ; preds = %89, %88
  br label %98

98:                                               ; preds = %.preheader137, %98
  %indvars.iv126 = phi i64 [ %indvars.iv.next127, %98 ], [ 0, %.preheader137 ]
  %.078104 = phi i32 [ %104, %98 ], [ 0, %.preheader137 ]
  %99 = getelementptr inbounds [18 x i32], ptr %9, i64 0, i64 %indvars.iv126
  %100 = load i32, ptr %99, align 4
  %101 = getelementptr inbounds [3 x i32], ptr @av1_fast_palette_color_index_context.hash_multipliers, i64 0, i64 %indvars.iv126
  %102 = load i32, ptr %101, align 4
  %103 = mul nsw i32 %102, %100
  %104 = add nsw i32 %103, %.078104
  %indvars.iv.next127 = add nuw nsw i64 %indvars.iv126, 1
  %exitcond129.not = icmp eq i64 %indvars.iv.next127, 3
  br i1 %exitcond129.not, label %105, label %98, !llvm.loop !10

105:                                              ; preds = %98
  %106 = sext i32 %104 to i64
  %107 = getelementptr inbounds [9 x i32], ptr @palette_color_index_context_lookup, i64 0, i64 %106
  %108 = load i32, ptr %107, align 4
  ret i32 %108
}